; Function Attrs: null_pointer_is_valid sspstrong uwtable
define internal i32 @dissect_i2c_ipmi(ptr noundef %0, ptr noundef %1, ptr noundef %2, ptr noundef captures(address_is_null) %3) #0 {
  %5 = getelementptr inbounds nuw i8, ptr %1, i64 88
  %6 = load ptr, ptr %5, align 8
  %7 = getelementptr inbounds nuw i8, ptr %6, i64 4
  %8 = load i32, ptr %7, align 4
  %9 = and i32 %8, 1
  %.not = icmp eq i32 %9, 0
  br i1 %.not, label %10, label %14

10:                                               ; preds = %4
  %11 = load i32, ptr @proto_ipmb, align 4
  %12 = load i32, ptr @ett_ipmi, align 4
  %13 = tail call i32 @do_dissect_ipmb(ptr noundef %0, ptr noundef %1, ptr noundef %2, i32 noundef %11, i32 noundef %12, ptr noundef %3)
  br label %14

14:                                               ; preds = %4, %10
  %.0 = phi i32 [ %13, %10 ], [ 0, %4 ]
  ret i32 %.0
}